target datalayout = "e-m:e-p270:32:32-p271:32:32-p272:64:64-i64:64-i128:128-f80:128-n8:16:32:64-S128"
target triple = "x86_64-pc-linux-gnu"

%struct.MultiSortSupportData = type { i32, [0 x %struct.SortSupportData] }
%struct.SortSupportData = type { ptr, i32, i8, i8, i16, ptr, ptr, i8, ptr, ptr, ptr }

@CurrentMemoryContext = external global ptr, align 8

; Function Attrs: nounwind uwtable
define dso_local void @multi_sort_add_dimension(ptr noundef %0, i32 noundef %1, i32 noundef %2, i32 noundef %3) #0 {
  %5 = alloca ptr, align 8
  %6 = alloca i32, align 4
  %7 = alloca i32, align 4
  %8 = alloca i32, align 4
  %9 = alloca ptr, align 8
  store ptr %0, ptr %5, align 8
  store i32 %1, ptr %6, align 4
  store i32 %2, ptr %7, align 4
  store i32 %3, ptr %8, align 4
  call void @llvm.lifetime.start.p0(i64 8, ptr %9) #8
  %10 = load ptr, ptr %5, align 8
  %11 = getelementptr inbounds nuw %struct.MultiSortSupportData, ptr %10, i32 0, i32 1
  %12 = load i32, ptr %6, align 4
  %13 = sext i32 %12 to i64
  %14 = getelementptr inbounds [0 x %struct.SortSupportData], ptr %11, i64 0, i64 %13
  store ptr %14, ptr %9, align 8
  %15 = load ptr, ptr @CurrentMemoryContext, align 8
  %16 = load ptr, ptr %9, align 8
  %17 = getelementptr inbounds nuw %struct.SortSupportData, ptr %16, i32 0, i32 0
  store ptr %15, ptr %17, align 8
  %18 = load i32, ptr %8, align 4
  %19 = load ptr, ptr %9, align 8
  %20 = getelementptr inbounds nuw %struct.SortSupportData, ptr %19, i32 0, i32 1
  store i32 %18, ptr %20, align 8
  %21 = load ptr, ptr %9, align 8
  %22 = getelementptr inbounds nuw %struct.SortSupportData, ptr %21, i32 0, i32 3
  store i8 0, ptr %22, align 1
  %23 = load i32, ptr %7, align 4
  %24 = load ptr, ptr %9, align 8
  call void @PrepareSortSupportFromOrderingOp(i32 noundef %23, ptr noundef %24)
  call void @llvm.lifetime.end.p0(i64 8, ptr %9) #8
  ret void
}