; Function Attrs: nounwind uwtable
define dso_local void @multi_sort_add_dimension(ptr noundef %0, i32 noundef %1, i32 noundef %2, i32 noundef %3) local_unnamed_addr #0 {
  %5 = getelementptr inbounds nuw i8, ptr %0, i64 8
  %6 = sext i32 %1 to i64
  %7 = getelementptr inbounds [0 x %struct.SortSupportData], ptr %5, i64 0, i64 %6
  %8 = load ptr, ptr @CurrentMemoryContext, align 8
  store ptr %8, ptr %7, align 8
  %9 = getelementptr inbounds nuw i8, ptr %7, i64 8
  store i32 %3, ptr %9, align 8
  %10 = getelementptr inbounds nuw i8, ptr %7, i64 13
  store i8 0, ptr %10, align 1
  tail call void @PrepareSortSupportFromOrderingOp(i32 noundef %2, ptr noundef nonnull %7) #10
  ret void
}